target datalayout = "e-m:e-p270:32:32-p271:32:32-p272:64:64-i64:64-i128:128-f80:128-n8:16:32:64-S128"
target triple = "x86_64-pc-linux-gnu"

%struct.EC_builtin_curve = type { i32, ptr }

@.str = private unnamed_addr constant [25 x i8] c"../openssl/test/ectest.c\00", align 1
@curves = internal global ptr null, align 8
@.str.27 = private unnamed_addr constant [2 x i8] c"0\00", align 1
@.str.116 = private unnamed_addr constant [13 x i8] c"x = BN_new()\00", align 1
@.str.117 = private unnamed_addr constant [13 x i8] c"y = BN_new()\00", align 1
@.str.481 = private unnamed_addr constant [47 x i8] c"key = EC_KEY_new_by_curve_name(curves[id].nid)\00", align 1
@.str.482 = private unnamed_addr constant [31 x i8] c"group = EC_KEY_get0_group(key)\00", align 1
@.str.483 = private unnamed_addr constant [35 x i8] c"field = EC_GROUP_get0_field(group)\00", align 1
@.str.484 = private unnamed_addr constant [25 x i8] c"EC_KEY_generate_key(key)\00", align 1
@.str.485 = private unnamed_addr constant [22 x i8] c"EC_KEY_check_key(key)\00", align 1
@.str.486 = private unnamed_addr constant [34 x i8] c"pub = EC_KEY_get0_public_key(key)\00", align 1
@.str.487 = private unnamed_addr constant [56 x i8] c"EC_POINT_get_affine_coordinates(group, pub, x, y, NULL)\00", align 1
@.str.488 = private unnamed_addr constant [25 x i8] c"BN_GF2m_add(x, x, field)\00", align 1
@.str.489 = private unnamed_addr constant [20 x i8] c"BN_add(x, x, field)\00", align 1
@.str.490 = private unnamed_addr constant [33 x i8] c"Unsupported EC_METHOD field_type\00", align 1
@.str.491 = private unnamed_addr constant [52 x i8] c"EC_KEY_set_public_key_affine_coordinates(key, x, y)\00", align 1

; Function Attrs: nounwind uwtable
define internal i32 @check_ec_key_field_public_range_test(i32 noundef %0) #0 {
  %2 = alloca i32, align 4
  %3 = alloca i32, align 4
  %4 = alloca i32, align 4
  %5 = alloca ptr, align 8
  %6 = alloca ptr, align 8
  %7 = alloca ptr, align 8
  %8 = alloca ptr, align 8
  %9 = alloca ptr, align 8
  %10 = alloca ptr, align 8
  store i32 %0, ptr %2, align 4, !tbaa !16
  call void @llvm.lifetime.start.p0(i64 4, ptr %3) #7
  store i32 0, ptr %3, align 4, !tbaa !16
  call void @llvm.lifetime.start.p0(i64 4, ptr %4) #7
  store i32 0, ptr %4, align 4, !tbaa !16
  call void @llvm.lifetime.start.p0(i64 8, ptr %5) #7
  store ptr null, ptr %5, align 8, !tbaa !24
  call void @llvm.lifetime.start.p0(i64 8, ptr %6) #7
  store ptr null, ptr %6, align 8, !tbaa !10
  call void @llvm.lifetime.start.p0(i64 8, ptr %7) #7
  store ptr null, ptr %7, align 8, !tbaa !26
  call void @llvm.lifetime.start.p0(i64 8, ptr %8) #7
  store ptr null, ptr %8, align 8, !tbaa !26
  call void @llvm.lifetime.start.p0(i64 8, ptr %9) #7
  store ptr null, ptr %9, align 8, !tbaa !26
  call void @llvm.lifetime.start.p0(i64 8, ptr %10) #7
  store ptr null, ptr %10, align 8, !tbaa !60
  %11 = call ptr @BN_new()
  store ptr %11, ptr %8, align 8, !tbaa !26
  %12 = call i32 @test_ptr(ptr noundef @.str, i32 noundef 2357, ptr noundef @.str.116, ptr noundef %11)
  %13 = icmp ne i32 %12, 0
  br i1 %13, label %14, label %61

14:                                               ; preds = %1
  %15 = call ptr @BN_new()
  store ptr %15, ptr %9, align 8, !tbaa !26
  %16 = call i32 @test_ptr(ptr noundef @.str, i32 noundef 2358, ptr noundef @.str.117, ptr noundef %15)
  %17 = icmp ne i32 %16, 0
  br i1 %17, label %18, label %61

18:                                               ; preds = %14
  %19 = load ptr, ptr @curves, align 8, !tbaa !8
  %20 = load i32, ptr %2, align 4, !tbaa !16
  %21 = sext i32 %20 to i64
  %22 = getelementptr inbounds %struct.EC_builtin_curve, ptr %19, i64 %21
  %23 = getelementptr inbounds nuw %struct.EC_builtin_curve, ptr %22, i32 0, i32 0
  %24 = load i32, ptr %23, align 8, !tbaa !28
  %25 = call ptr @EC_KEY_new_by_curve_name(i32 noundef %24)
  store ptr %25, ptr %10, align 8, !tbaa !60
  %26 = call i32 @test_ptr(ptr noundef @.str, i32 noundef 2359, ptr noundef @.str.481, ptr noundef %25)
  %27 = icmp ne i32 %26, 0
  br i1 %27, label %28, label %61

28:                                               ; preds = %18
  %29 = load ptr, ptr %10, align 8, !tbaa !60
  %30 = call ptr @EC_KEY_get0_group(ptr noundef %29)
  store ptr %30, ptr %6, align 8, !tbaa !10
  %31 = call i32 @test_ptr(ptr noundef @.str, i32 noundef 2360, ptr noundef @.str.482, ptr noundef %30)
  %32 = icmp ne i32 %31, 0
  br i1 %32, label %33, label %61

33:                                               ; preds = %28
  %34 = load ptr, ptr %6, align 8, !tbaa !10
  %35 = call ptr @EC_GROUP_get0_field(ptr noundef %34)
  store ptr %35, ptr %7, align 8, !tbaa !26
  %36 = call i32 @test_ptr(ptr noundef @.str, i32 noundef 2361, ptr noundef @.str.483, ptr noundef %35)
  %37 = icmp ne i32 %36, 0
  br i1 %37, label %38, label %61

38:                                               ; preds = %33
  %39 = load ptr, ptr %10, align 8, !tbaa !60
  %40 = call i32 @EC_KEY_generate_key(ptr noundef %39)
  %41 = call i32 @test_int_gt(ptr noundef @.str, i32 noundef 2362, ptr noundef @.str.484, ptr noundef @.str.27, i32 noundef %40, i32 noundef 0)
  %42 = icmp ne i32 %41, 0
  br i1 %42, label %43, label %61

43:                                               ; preds = %38
  %44 = load ptr, ptr %10, align 8, !tbaa !60
  %45 = call i32 @EC_KEY_check_key(ptr noundef %44)
  %46 = call i32 @test_int_gt(ptr noundef @.str, i32 noundef 2363, ptr noundef @.str.485, ptr noundef @.str.27, i32 noundef %45, i32 noundef 0)
  %47 = icmp ne i32 %46, 0
  br i1 %47, label %48, label %61

48:                                               ; preds = %43
  %49 = load ptr, ptr %10, align 8, !tbaa !60
  %50 = call ptr @EC_KEY_get0_public_key(ptr noundef %49)
  store ptr %50, ptr %5, align 8, !tbaa !24
  %51 = call i32 @test_ptr(ptr noundef @.str, i32 noundef 2364, ptr noundef @.str.486, ptr noundef %50)
  %52 = icmp ne i32 %51, 0
  br i1 %52, label %53, label %61

53:                                               ; preds = %48
  %54 = load ptr, ptr %6, align 8, !tbaa !10
  %55 = load ptr, ptr %5, align 8, !tbaa !24
  %56 = load ptr, ptr %8, align 8, !tbaa !26
  %57 = load ptr, ptr %9, align 8, !tbaa !26
  %58 = call i32 @EC_POINT_get_affine_coordinates(ptr noundef %54, ptr noundef %55, ptr noundef %56, ptr noundef %57, ptr noundef null)
  %59 = call i32 @test_int_gt(ptr noundef @.str, i32 noundef 2366, ptr noundef @.str.487, ptr noundef @.str.27, i32 noundef %58, i32 noundef 0)
  %60 = icmp ne i32 %59, 0
  br i1 %60, label %62, label %61

61:                                               ; preds = %53, %48, %43, %38, %33, %28, %18, %14, %1
  br label %103

62:                                               ; preds = %53
  %63 = load ptr, ptr %6, align 8, !tbaa !10
  %64 = call i32 @EC_GROUP_get_field_type(ptr noundef %63)
  store i32 %64, ptr %4, align 4, !tbaa !16
  %65 = load i32, ptr %4, align 4, !tbaa !16
  %66 = icmp eq i32 %65, 407
  br i1 %66, label %67, label %78

67:                                               ; preds = %62
  %68 = load ptr, ptr %8, align 8, !tbaa !26
  %69 = load ptr, ptr %8, align 8, !tbaa !26
  %70 = load ptr, ptr %7, align 8, !tbaa !26
  %71 = call i32 @BN_GF2m_add(ptr noundef %68, ptr noundef %69, ptr noundef %70)
  %72 = icmp ne i32 %71, 0
  %73 = zext i1 %72 to i32
  %74 = call i32 @test_true(ptr noundef @.str, i32 noundef 2377, ptr noundef @.str.488, i32 noundef %73)
  %75 = icmp ne i32 %74, 0
  br i1 %75, label %77, label %76

76:                                               ; preds = %67
  br label %103

77:                                               ; preds = %67
  br label %94

78:                                               ; preds = %62
  %79 = load i32, ptr %4, align 4, !tbaa !16
  %80 = icmp eq i32 %79, 406
  br i1 %80, label %81, label %92

81:                                               ; preds = %78
  %82 = load ptr, ptr %8, align 8, !tbaa !26
  %83 = load ptr, ptr %8, align 8, !tbaa !26
  %84 = load ptr, ptr %7, align 8, !tbaa !26
  %85 = call i32 @BN_add(ptr noundef %82, ptr noundef %83, ptr noundef %84)
  %86 = icmp ne i32 %85, 0
  %87 = zext i1 %86 to i32
  %88 = call i32 @test_true(ptr noundef @.str, i32 noundef 2383, ptr noundef @.str.489, i32 noundef %87)
  %89 = icmp ne i32 %88, 0
  br i1 %89, label %91, label %90

90:                                               ; preds = %81
  br label %103

91:                                               ; preds = %81
  br label %93

92:                                               ; preds = %78
  call void (ptr, i32, ptr, ...) @test_error(ptr noundef @.str, i32 noundef 2387, ptr noundef @.str.490)
  br label %103

93:                                               ; preds = %91
  br label %94

94:                                               ; preds = %93, %77
  %95 = load ptr, ptr %10, align 8, !tbaa !60
  %96 = load ptr, ptr %8, align 8, !tbaa !26
  %97 = load ptr, ptr %9, align 8, !tbaa !26
  %98 = call i32 @EC_KEY_set_public_key_affine_coordinates(ptr noundef %95, ptr noundef %96, ptr noundef %97)
  %99 = call i32 @test_int_le(ptr noundef @.str, i32 noundef 2390, ptr noundef @.str.491, ptr noundef @.str.27, i32 noundef %98, i32 noundef 0)
  %100 = icmp ne i32 %99, 0
  br i1 %100, label %102, label %101

101:                                              ; preds = %94
  br label %103

102:                                              ; preds = %94
  store i32 1, ptr %3, align 4, !tbaa !16
  br label %103

103:                                              ; preds = %102, %101, %92, %90, %76, %61
  %104 = load ptr, ptr %8, align 8, !tbaa !26
  call void @BN_free(ptr noundef %104)
  %105 = load ptr, ptr %9, align 8, !tbaa !26
  call void @BN_free(ptr noundef %105)
  %106 = load ptr, ptr %10, align 8, !tbaa !60
  call void @EC_KEY_free(ptr noundef %106)
  %107 = load i32, ptr %3, align 4, !tbaa !16
  call void @llvm.lifetime.end.p0(i64 8, ptr %10) #7
  call void @llvm.lifetime.end.p0(i64 8, ptr %9) #7
  call void @llvm.lifetime.end.p0(i64 8, ptr %8) #7
  call void @llvm.lifetime.end.p0(i64 8, ptr %7) #7
  call void @llvm.lifetime.end.p0(i64 8, ptr %6) #7
  call void @llvm.lifetime.end.p0(i64 8, ptr %5) #7
  call void @llvm.lifetime.end.p0(i64 4, ptr %4) #7
  call void @llvm.lifetime.end.p0(i64 4, ptr %3) #7
  ret i32 %107
}