; Function Attrs: nounwind uwtable
define internal range(i32 0, 2) i32 @check_ec_key_field_public_range_test(i32 noundef %0) #0 {
  %2 = tail call ptr @BN_new() #7
  %3 = tail call i32 @test_ptr(ptr noundef nonnull @.str, i32 noundef 2357, ptr noundef nonnull @.str.116, ptr noundef %2) #7
  %.not = icmp eq i32 %3, 0
  br i1 %.not, label %48, label %4

4:                                                ; preds = %1
  %5 = tail call ptr @BN_new() #7
  %6 = tail call i32 @test_ptr(ptr noundef nonnull @.str, i32 noundef 2358, ptr noundef nonnull @.str.117, ptr noundef %5) #7
  %.not28 = icmp eq i32 %6, 0
  br i1 %.not28, label %48, label %7

7:                                                ; preds = %4
  %8 = load ptr, ptr @curves, align 8, !tbaa !8
  %9 = sext i32 %0 to i64
  %10 = getelementptr inbounds %struct.EC_builtin_curve, ptr %8, i64 %9
  %11 = load i32, ptr %10, align 8, !tbaa !16
  %12 = tail call ptr @EC_KEY_new_by_curve_name(i32 noundef %11) #7
  %13 = tail call i32 @test_ptr(ptr noundef nonnull @.str, i32 noundef 2359, ptr noundef nonnull @.str.481, ptr noundef %12) #7
  %.not29 = icmp eq i32 %13, 0
  br i1 %.not29, label %48, label %14

14:                                               ; preds = %7
  %15 = tail call ptr @EC_KEY_get0_group(ptr noundef %12) #7
  %16 = tail call i32 @test_ptr(ptr noundef nonnull @.str, i32 noundef 2360, ptr noundef nonnull @.str.482, ptr noundef %15) #7
  %.not30 = icmp eq i32 %16, 0
  br i1 %.not30, label %48, label %17

17:                                               ; preds = %14
  %18 = tail call ptr @EC_GROUP_get0_field(ptr noundef %15) #7
  %19 = tail call i32 @test_ptr(ptr noundef nonnull @.str, i32 noundef 2361, ptr noundef nonnull @.str.483, ptr noundef %18) #7
  %.not31 = icmp eq i32 %19, 0
  br i1 %.not31, label %48, label %20

20:                                               ; preds = %17
  %21 = tail call i32 @EC_KEY_generate_key(ptr noundef %12) #7
  %22 = tail call i32 @test_int_gt(ptr noundef nonnull @.str, i32 noundef 2362, ptr noundef nonnull @.str.484, ptr noundef nonnull @.str.27, i32 noundef %21, i32 noundef 0) #7
  %.not32 = icmp eq i32 %22, 0
  br i1 %.not32, label %48, label %23

23:                                               ; preds = %20
  %24 = tail call i32 @EC_KEY_check_key(ptr noundef %12) #7
  %25 = tail call i32 @test_int_gt(ptr noundef nonnull @.str, i32 noundef 2363, ptr noundef nonnull @.str.485, ptr noundef nonnull @.str.27, i32 noundef %24, i32 noundef 0) #7
  %.not33 = icmp eq i32 %25, 0
  br i1 %.not33, label %48, label %26

26:                                               ; preds = %23
  %27 = tail call ptr @EC_KEY_get0_public_key(ptr noundef %12) #7
  %28 = tail call i32 @test_ptr(ptr noundef nonnull @.str, i32 noundef 2364, ptr noundef nonnull @.str.486, ptr noundef %27) #7
  %.not34 = icmp eq i32 %28, 0
  br i1 %.not34, label %48, label %29

29:                                               ; preds = %26
  %30 = tail call i32 @EC_POINT_get_affine_coordinates(ptr noundef %15, ptr noundef %27, ptr noundef %2, ptr noundef %5, ptr noundef null) #7
  %31 = tail call i32 @test_int_gt(ptr noundef nonnull @.str, i32 noundef 2366, ptr noundef nonnull @.str.487, ptr noundef nonnull @.str.27, i32 noundef %30, i32 noundef 0) #7
  %.not35 = icmp eq i32 %31, 0
  br i1 %.not35, label %48, label %32

32:                                               ; preds = %29
  %33 = tail call i32 @EC_GROUP_get_field_type(ptr noundef %15) #7
  switch i32 %33, label %44 [
    i32 407, label %34
    i32 406, label %39
  ]

34:                                               ; preds = %32
  %35 = tail call i32 @BN_GF2m_add(ptr noundef %2, ptr noundef %2, ptr noundef %18) #7
  %36 = icmp ne i32 %35, 0
  %37 = zext i1 %36 to i32
  %38 = tail call i32 @test_true(ptr noundef nonnull @.str, i32 noundef 2377, ptr noundef nonnull @.str.488, i32 noundef %37) #7
  %.not37 = icmp eq i32 %38, 0
  br i1 %.not37, label %48, label %45

39:                                               ; preds = %32
  %40 = tail call i32 @BN_add(ptr noundef %2, ptr noundef %2, ptr noundef %18) #7
  %41 = icmp ne i32 %40, 0
  %42 = zext i1 %41 to i32
  %43 = tail call i32 @test_true(ptr noundef nonnull @.str, i32 noundef 2383, ptr noundef nonnull @.str.489, i32 noundef %42) #7
  %.not36 = icmp eq i32 %43, 0
  br i1 %.not36, label %48, label %45

44:                                               ; preds = %32
  tail call void (ptr, i32, ptr, ...) @test_error(ptr noundef nonnull @.str, i32 noundef 2387, ptr noundef nonnull @.str.490) #7
  br label %48

45:                                               ; preds = %39, %34
  %46 = tail call i32 @EC_KEY_set_public_key_affine_coordinates(ptr noundef %12, ptr noundef %2, ptr noundef %5) #7
  %47 = tail call i32 @test_int_le(ptr noundef nonnull @.str, i32 noundef 2390, ptr noundef nonnull @.str.491, ptr noundef nonnull @.str.27, i32 noundef %46, i32 noundef 0) #7
  %.not38 = icmp ne i32 %47, 0
  %spec.select = zext i1 %.not38 to i32
  br label %48

48:                                               ; preds = %45, %39, %34, %1, %4, %7, %14, %17, %20, %23, %26, %29, %44
  %.026 = phi i32 [ 0, %34 ], [ 0, %39 ], [ 0, %44 ], [ 0, %29 ], [ 0, %26 ], [ 0, %23 ], [ 0, %20 ], [ 0, %17 ], [ 0, %14 ], [ 0, %7 ], [ 0, %4 ], [ 0, %1 ], [ %spec.select, %45 ]
  %.025 = phi ptr [ %5, %34 ], [ %5, %39 ], [ %5, %44 ], [ %5, %29 ], [ %5, %26 ], [ %5, %23 ], [ %5, %20 ], [ %5, %17 ], [ %5, %14 ], [ %5, %7 ], [ %5, %4 ], [ null, %1 ], [ %5, %45 ]
  %.0 = phi ptr [ %12, %34 ], [ %12, %39 ], [ %12, %44 ], [ %12, %29 ], [ %12, %26 ], [ %12, %23 ], [ %12, %20 ], [ %12, %17 ], [ %12, %14 ], [ %12, %7 ], [ null, %4 ], [ null, %1 ], [ %12, %45 ]
  tail call void @BN_free(ptr noundef %2) #7
  tail call void @BN_free(ptr noundef %.025) #7
  tail call void @EC_KEY_free(ptr noundef %.0) #7
  ret i32 %.026
}